TN:
SF:/home/kgsande/xmlparse/src/userInterface.cpp
FN:7,_ZN13UserInterface17fillParserConfigsER13ParserConfigs
FN:15,_ZN13UserInterface21collectCallbackConfigEv
FN:27,_ZN13UserInterface22userWantsToAddCallbackEv
FN:35,_ZN13UserInterface13reportResultsERKSt6vectorIN10Xml_Parser7xmlNodeESaIS2_EERKSt3mapINSt7__cxx1112basic_stringIcSt11char_traitsIcESaIcEEES4_St4lessISD_ESaISt4pairIKSD_S4_EEERK13ParserConfigs
FN:77,_ZN13UserInterface19promptFileSelectionB5cxx11Ev
FN:92,_ZN13UserInterface15promptPrintModeEv
FN:100,_ZN13UserInterface18promptCallbackModeEv
FN:115,_ZN13UserInterface18promptPathToFollowB5cxx11Ev
FN:124,_ZN13UserInterface16promptAttributesB5cxx11Ev
FN:140,_ZN13UserInterface13promptTriggerERKNSt7__cxx1112basic_stringIcSt11char_traitsIcESaIcEEE
FN:161,_ZN13UserInterface17printCallBackNodeERKN10Xml_Parser7xmlNodeERK15CallbackConfigs
FNDA:0,_ZN13UserInterface21collectCallbackConfigEv
FNDA:0,_ZN13UserInterface17fillParserConfigsER13ParserConfigs
FNDA:0,_ZN13UserInterface19promptFileSelectionB5cxx11Ev
FNDA:0,_ZN13UserInterface18promptPathToFollowB5cxx11Ev
FNDA:0,_ZN13UserInterface17printCallBackNodeERKN10Xml_Parser7xmlNodeERK15CallbackConfigs
FNDA:0,_ZN13UserInterface22userWantsToAddCallbackEv
FNDA:0,_ZN13UserInterface13reportResultsERKSt6vectorIN10Xml_Parser7xmlNodeESaIS2_EERKSt3mapINSt7__cxx1112basic_stringIcSt11char_traitsIcESaIcEEES4_St4lessISD_ESaISt4pairIKSD_S4_EEERK13ParserConfigs
FNDA:0,_ZN13UserInterface18promptCallbackModeEv
FNDA:0,_ZN13UserInterface16promptAttributesB5cxx11Ev
FNDA:0,_ZN13UserInterface15promptPrintModeEv
FNDA:0,_ZN13UserInterface13promptTriggerERKNSt7__cxx1112basic_stringIcSt11char_traitsIcESaIcEEE
FNF:11
FNH:0
DA:7,0
DA:9,0
DA:10,0
DA:11,0
DA:12,0
DA:13,0
DA:15,0
DA:17,0
DA:18,0
DA:19,0
DA:21,0
DA:22,0
DA:23,0
DA:24,0
DA:27,0
DA:29,0
DA:30,0
DA:31,0
DA:32,0
DA:35,0
DA:40,0
DA:41,0
DA:42,0
DA:43,0
DA:44,0
DA:45,0
DA:46,0
DA:47,0
DA:48,0
DA:49,0
DA:52,0
DA:53,0
DA:55,0
DA:59,0
DA:60,0
DA:61,0
DA:62,0
DA:63,0
DA:64,0
DA:65,0
DA:67,0
DA:72,0
DA:77,0
DA:79,0
DA:80,0
DA:81,0
DA:82,0
DA:83,0
DA:84,0
DA:85,0
DA:87,0
DA:88,0
DA:89,0
DA:92,0
DA:94,0
DA:95,0
DA:96,0
DA:97,0
DA:100,0
DA:103,0
DA:104,0
DA:105,0
DA:106,0
DA:107,0
DA:108,0
DA:110,0
DA:111,0
DA:115,0
DA:117,0
DA:118,0
DA:119,0
DA:120,0
DA:121,0
DA:124,0
DA:126,0
DA:127,0
DA:128,0
DA:130,0
DA:131,0
DA:132,0
DA:133,0
DA:135,0
DA:137,0
DA:140,0
DA:142,0
DA:143,0
DA:144,0
DA:145,0
DA:147,0
DA:148,0
DA:150,0
DA:151,0
DA:152,0
DA:153,0
DA:155,0
DA:158,0
DA:161,0
DA:163,0
DA:166,0
DA:168,0
DA:169,0
DA:171,0
DA:173,0
DA:174,0
DA:176,0
DA:179,0
DA:181,0
DA:182,0
DA:184,0
DA:187,0
DA:188,0
DA:189,0
DA:190,0
LF:113
LH:0
end_of_record
TN:
SF:/home/kgsande/xmlparse/src/xmlDemoRunner.cpp
FN:7,_ZN13xmlDemoRunner10runDefaultEv
FN:28,_ZZN13xmlDemoRunner10runDefaultEvENKUlRKN10Xml_Parser7xmlNodeEE_clES3_
FN:67,_ZN13xmlDemoRunner13setupCallbackERN10Xml_Parser9xmlParserER15CallbackConfigsbRSt6vectorINS0_7xmlNodeESaIS6_EE
FN:77,_ZZN13xmlDemoRunner13setupCallbackERN10Xml_Parser9xmlParserER15CallbackConfigsbRSt6vectorINS0_7xmlNodeESaIS6_EEENKUlRKS6_E_clESB_
FN:115,_ZZN13xmlDemoRunner13setupCallbackERN10Xml_Parser9xmlParserER15CallbackConfigsbRSt6vectorINS0_7xmlNodeESaIS6_EEENKUlRKS6_E0_clESB_
FN:156,_ZN13xmlDemoRunner24RunCustomDemoWithConfigsER13ParserConfigs
FN:191,_ZN13xmlDemoRunner3runEv
FNDA:0,_ZZN13xmlDemoRunner10runDefaultEvENKUlRKN10Xml_Parser7xmlNodeEE_clES3_
FNDA:0,_ZN13xmlDemoRunner3runEv
FNDA:19,_ZZN13xmlDemoRunner13setupCallbackERN10Xml_Parser9xmlParserER15CallbackConfigsbRSt6vectorINS0_7xmlNodeESaIS6_EEENKUlRKS6_E0_clESB_
FNDA:4,_ZN13xmlDemoRunner13setupCallbackERN10Xml_Parser9xmlParserER15CallbackConfigsbRSt6vectorINS0_7xmlNodeESaIS6_EE
FNDA:0,_ZZN13xmlDemoRunner13setupCallbackERN10Xml_Parser9xmlParserER15CallbackConfigsbRSt6vectorINS0_7xmlNodeESaIS6_EEENKUlRKS6_E_clESB_
FNDA:4,_ZN13xmlDemoRunner24RunCustomDemoWithConfigsER13ParserConfigs
FNDA:0,_ZN13xmlDemoRunner10runDefaultEv
FNF:7
FNH:3
DA:7,0
DA:10,0
DA:11,0
DA:12,0
DA:14,0
DA:16,0
DA:17,0
DA:18,0
DA:20,0
DA:21,0
DA:22,0
DA:23,0
DA:24,0
DA:25,0
DA:26,0
DA:28,0
DA:31,0
DA:32,0
DA:34,0
DA:35,0
DA:39,0
DA:42,0
DA:43,0
DA:44,0
DA:45,0
DA:47,0
DA:48,0
DA:49,0
DA:52,0
DA:53,0
DA:54,0
DA:55,0
DA:58,0
DA:59,0
DA:60,0
DA:62,0
DA:64,0
DA:65,0
DA:67,4
DA:70,8
DA:71,4
DA:73,0
DA:75,0
DA:77,0
DA:79,0
DA:80,0
DA:81,0
DA:82,0
DA:83,0
DA:84,0
DA:85,0
DA:88,0
DA:89,0
DA:91,0
DA:92,0
DA:95,0
DA:96,0
DA:97,0
DA:99,0
DA:102,0
DA:103,0
DA:104,0
DA:107,0
DA:111,4
DA:113,0
DA:115,4
DA:118,19
DA:119,38
DA:121,19
DA:122,12
DA:126,8
DA:129,8
DA:130,0
DA:131,0
DA:132,0
DA:134,0
DA:135,0
DA:136,0
DA:139,16
DA:140,8
DA:141,8
DA:142,8
DA:145,8
DA:146,16
DA:147,8
DA:149,19
DA:151,4
DA:156,4
DA:157,4
DA:158,4
DA:160,0
DA:161,0
DA:164,8
DA:165,4
DA:168,4
DA:169,8
DA:170,8
DA:171,4
DA:173,0
DA:174,0
DA:175,0
DA:176,0
DA:179,0
DA:180,0
DA:181,0
DA:182,0
DA:185,4
DA:186,4
DA:191,0
DA:194,0
DA:195,0
DA:196,0
DA:197,0
DA:198,0
DA:199,0
DA:200,0
DA:201,0
DA:202,0
DA:203,0
DA:206,0
DA:207,0
DA:210,0
DA:211,0
DA:212,0
DA:213,0
DA:214,0
DA:215,0
DA:216,0
DA:217,0
DA:218,0
DA:221,0
DA:222,0
DA:223,0
DA:225,0
LF:134
LH:31
end_of_record
TN:
SF:/home/kgsande/xmlparse/src/xmlParser.cpp
FN:8,_ZNK10Xml_Parser9xmlParser7getRootEv
FN:14,_ZN10Xml_Parser9xmlParser12setPrintModeEb
FN:19,_ZN10Xml_Parser9xmlParser11addCallBackERNSt7__cxx1112basic_stringIcSt11char_traitsIcESaIcEEESt8functionIFvRKNS_7xmlNodeEEE
FN:31,_ZN10Xml_Parser9xmlParser5parseERKNSt7__cxx1112basic_stringIcSt11char_traitsIcESaIcEEE
FNDA:11,_ZN10Xml_Parser9xmlParser5parseERKNSt7__cxx1112basic_stringIcSt11char_traitsIcESaIcEEE
FNDA:5,_ZN10Xml_Parser9xmlParser11addCallBackERNSt7__cxx1112basic_stringIcSt11char_traitsIcESaIcEEESt8functionIFvRKNS_7xmlNodeEEE
FNDA:1,_ZN10Xml_Parser9xmlParser12setPrintModeEb
FNDA:4,_ZNK10Xml_Parser9xmlParser7getRootEv
FNF:4
FNH:4
DA:8,4
DA:9,4
DA:14,1
DA:16,1
DA:17,1
DA:19,5
DA:21,5
DA:22,5
DA:24,0
DA:26,5
DA:31,11
DA:33,22
DA:34,11
DA:36,11
DA:37,11
DA:38,11
DA:39,11
DA:41,481
DA:43,472
DA:45,245
DA:48,2
DA:49,2
DA:51,0
DA:55,2
DA:57,0
DA:58,0
DA:60,2
DA:61,2
DA:64,243
DA:66,120
DA:67,120
DA:68,120
DA:70,120
DA:72,0
DA:73,0
DA:75,120
DA:77,2
DA:78,2
DA:82,118
DA:83,118
DA:85,85
DA:87,118
DA:88,118
DA:89,216
DA:90,108
DA:91,20
DA:95,118
DA:98,118
DA:100,118
DA:105,123
DA:106,123
DA:107,902
DA:109,779
DA:111,246
DA:112,123
DA:114,86
DA:116,246
DA:117,123
DA:118,123
DA:119,123
DA:120,11
DA:122,112
DA:124,123
DA:125,123
DA:126,123
DA:128,123
DA:130,146
DA:132,47
DA:133,23
DA:134,24
DA:135,78
DA:136,54
DA:137,24
DA:138,1
DA:140,46
DA:141,23
DA:142,23
DA:144,23
DA:145,23
DA:146,122
DA:147,99
DA:148,46
DA:149,23
DA:150,23
DA:151,23
DA:152,23
DA:155,13
DA:159,123
DA:160,123
DA:165,227
DA:166,3304
DA:167,3077
DA:168,454
DA:171,227
DA:173,176
DA:174,88
DA:175,88
DA:176,88
DA:179,72
DA:184,9
LF:100
LH:94
end_of_record
TN:
SF:/home/kgsande/xmlparse/src/xmlParser.h
FN:25,_ZN10Xml_Parser7xmlNodeC2Ev
FNDA:134,_ZN10Xml_Parser7xmlNodeC2Ev
FNF:1
FNH:1
DA:25,134
LF:1
LH:1
end_of_record
TN:
SF:/home/kgsande/xmlparse/src/xmlUtils.cpp
FN:15,_ZN8xmlUtils16readFileToStringERNSt7__cxx1112basic_stringIcSt11char_traitsIcESaIcEEE
FN:30,_ZN8xmlUtils20getLastPathComponentERKNSt7__cxx1112basic_stringIcSt11char_traitsIcESaIcEEE
FN:42,_ZN8xmlUtils13normalizePathERKNSt7__cxx1112basic_stringIcSt11char_traitsIcESaIcEEE
FN:82,_ZN8xmlUtils9matchPathERKNSt7__cxx1112basic_stringIcSt11char_traitsIcESaIcEEES7_
FN:105,_ZN8xmlUtils13parseIfDoubleERKNSt7__cxx1112basic_stringIcSt11char_traitsIcESaIcEEE
FN:128,_ZN8xmlUtils10pathEndsInENSt7__cxx1112basic_stringIcSt11char_traitsIcESaIcEEES5_
FN:142,_ZN8xmlUtils16isWhiteSpaceOnlyERKNSt7__cxx1112basic_stringIcSt11char_traitsIcESaIcEEE
FN:156,_ZN8xmlUtils4trimERKNSt7__cxx1112basic_stringIcSt11char_traitsIcESaIcEEE
FN:173,_ZN8xmlUtils9buildPathERSt5stackINSt7__cxx1112basic_stringIcSt11char_traitsIcESaIcEEESt5dequeIS6_SaIS6_EEE
FN:200,_ZN8xmlUtils9decodeEntERKNSt7__cxx1112basic_stringIcSt11char_traitsIcESaIcEEE
FNDA:113,_ZN8xmlUtils9decodeEntERKNSt7__cxx1112basic_stringIcSt11char_traitsIcESaIcEEE
FNDA:89,_ZN8xmlUtils9buildPathERSt5stackINSt7__cxx1112basic_stringIcSt11char_traitsIcESaIcEEESt5dequeIS6_SaIS6_EEE
FNDA:0,_ZN8xmlUtils20getLastPathComponentERKNSt7__cxx1112basic_stringIcSt11char_traitsIcESaIcEEE
FNDA:229,_ZN8xmlUtils16isWhiteSpaceOnlyERKNSt7__cxx1112basic_stringIcSt11char_traitsIcESaIcEEE
FNDA:25,_ZN8xmlUtils13parseIfDoubleERKNSt7__cxx1112basic_stringIcSt11char_traitsIcESaIcEEE
FNDA:8,_ZN8xmlUtils16readFileToStringERNSt7__cxx1112basic_stringIcSt11char_traitsIcESaIcEEE
FNDA:120,_ZN8xmlUtils10pathEndsInENSt7__cxx1112basic_stringIcSt11char_traitsIcESaIcEEES5_
FNDA:5,_ZN8xmlUtils13normalizePathERKNSt7__cxx1112basic_stringIcSt11char_traitsIcESaIcEEE
FNDA:113,_ZN8xmlUtils4trimERKNSt7__cxx1112basic_stringIcSt11char_traitsIcESaIcEEE
FNDA:130,_ZN8xmlUtils9matchPathERKNSt7__cxx1112basic_stringIcSt11char_traitsIcESaIcEEES7_
FNF:10
FNH:9
DA:15,8
DA:17,16
DA:18,8
DA:20,0
DA:21,0
DA:23,16
DA:24,8
DA:25,8
DA:30,0
DA:32,0
DA:33,0
DA:35,0
DA:37,0
DA:42,5
DA:44,5
DA:45,5
DA:47,71
DA:49,66
DA:51,11
DA:53,9
DA:54,9
DA:59,55
DA:60,55
DA:65,5
DA:67,2
DA:71,5
DA:73,2
DA:76,5
DA:82,130
DA:85,130
DA:87,2
DA:89,128
DA:93,127
DA:94,127
DA:96,39
DA:100,89
DA:105,25
DA:107,25
DA:108,1
DA:109,24
DA:112,24
DA:114,23
DA:116,22
DA:119,1
DA:122,2
DA:128,120
DA:130,120
DA:132,120
DA:136,0
DA:142,229
DA:144,1067
DA:146,927
DA:148,89
DA:151,140
DA:156,113
DA:158,113
DA:159,113
DA:161,1
DA:163,112
DA:164,112
DA:173,89
DA:176,178
DA:177,178
DA:181,424
DA:183,335
DA:184,335
DA:186,89
DA:187,424
DA:189,335
DA:191,89
DA:192,89
DA:193,178
DA:200,113
DA:202,113
DA:203,113
DA:205,791
DA:206,113
DA:209,2447
DA:211,2334
DA:213,12
DA:214,12
DA:215,48
DA:217,36
DA:219,11
DA:220,11
DA:221,11
DA:223,36
DA:225,12
DA:227,1
DA:228,1
DA:233,2322
DA:236,226
LF:92
LH:84
end_of_record
TN:
SF:/home/kgsande/xmlparse/tests/testUtils.h
FN:10,_Z9stringDifNSt7__cxx1112basic_stringIcSt11char_traitsIcESaIcEEES4_
FN:27,_Z11assertEqualRKNSt7__cxx1112basic_stringIcSt11char_traitsIcESaIcEEES6_S6_
FN:40,_Z11assertEqualiiRKNSt7__cxx1112basic_stringIcSt11char_traitsIcESaIcEEE
FN:51,_Z10assertTruebRKNSt7__cxx1112basic_stringIcSt11char_traitsIcESaIcEEE
FN:63,_Z13captureOutputB5cxx11St8functionIFvvEE
FNDA:8,_Z10assertTruebRKNSt7__cxx1112basic_stringIcSt11char_traitsIcESaIcEEE
FNDA:0,_Z9stringDifNSt7__cxx1112basic_stringIcSt11char_traitsIcESaIcEEES4_
FNDA:4,_Z13captureOutputB5cxx11St8functionIFvvEE
FNDA:9,_Z11assertEqualiiRKNSt7__cxx1112basic_stringIcSt11char_traitsIcESaIcEEE
FNDA:19,_Z11assertEqualRKNSt7__cxx1112basic_stringIcSt11char_traitsIcESaIcEEES6_S6_
FNF:5
FNH:4
DA:10,0
DA:12,0
DA:13,0
DA:15,0
DA:17,0
DA:18,0
DA:21,0
DA:23,0
DA:25,0
DA:27,19
DA:29,19
DA:31,0
DA:33,0
DA:34,0
DA:36,19
DA:37,19
DA:40,9
DA:42,9
DA:44,0
DA:45,0
DA:47,9
DA:48,9
DA:51,8
DA:53,8
DA:55,0
DA:56,0
DA:58,8
DA:59,8
DA:63,4
DA:65,8
DA:66,4
DA:68,4
DA:70,4
DA:71,8
LF:34
LH:18
end_of_record
TN:
SF:/home/kgsande/xmlparse/tests/test_parser.cpp
FN:8,main
FNDA:1,main
FNF:1
FNH:1
DA:8,1
DA:11,1
DA:12,1
DA:13,2
DA:24,1
DA:25,1
DA:26,1
DA:28,1
DA:31,1
DA:34,1
DA:38,1
LF:11
LH:11
end_of_record
TN:
SF:/home/kgsande/xmlparse/tests/test_xmlDemoRunner.cpp
FN:11,_Z7runTestb
FN:16,_Z19test_BasicPathMatchv
FN:42,_ZZ19test_BasicPathMatchvENKUlvE_clEv
FN:49,_Z25test_BasicPathMatchLesserv
FN:75,_ZZ25test_BasicPathMatchLesservENKUlvE_clEv
FN:84,_Z26test_BasicPathMatchCommentv
FN:110,_ZZ26test_BasicPathMatchCommentvENKUlvE_clEv
FN:119,_Z24test_BasicPathMatchPrintv
FN:145,_ZZ24test_BasicPathMatchPrintvENKUlvE_clEv
FN:155,main
FNDA:1,_ZZ19test_BasicPathMatchvENKUlvE_clEv
FNDA:4,_Z7runTestb
FNDA:1,_ZZ25test_BasicPathMatchLesservENKUlvE_clEv
FNDA:1,_Z24test_BasicPathMatchPrintv
FNDA:1,main
FNDA:1,_Z26test_BasicPathMatchCommentv
FNDA:1,_Z19test_BasicPathMatchv
FNDA:1,_ZZ24test_BasicPathMatchPrintvENKUlvE_clEv
FNDA:1,_ZZ26test_BasicPathMatchCommentvENKUlvE_clEv
FNDA:1,_Z25test_BasicPathMatchLesserv
FNF:10
FNH:10
DA:11,4
DA:12,4
DA:13,0
DA:14,4
DA:16,1
DA:17,2
DA:18,2
DA:21,1
DA:22,1
DA:23,1
DA:24,1
DA:25,1
DA:27,1
DA:28,1
DA:29,1
DA:30,1
DA:31,1
DA:32,1
DA:34,1
DA:35,2
DA:36,1
DA:38,2
DA:39,2
DA:42,1
DA:43,1
DA:44,1
DA:46,1
DA:47,1
DA:49,1
DA:50,2
DA:51,2
DA:54,1
DA:55,1
DA:56,1
DA:57,1
DA:58,1
DA:60,1
DA:61,1
DA:62,1
DA:63,1
DA:64,1
DA:65,1
DA:67,1
DA:68,2
DA:69,1
DA:71,2
DA:72,2
DA:75,1
DA:76,1
DA:77,1
DA:81,1
DA:82,1
DA:84,1
DA:85,2
DA:86,2
DA:89,1
DA:90,1
DA:91,1
DA:92,1
DA:93,1
DA:95,1
DA:96,1
DA:97,1
DA:98,1
DA:99,1
DA:100,1
DA:102,1
DA:103,2
DA:104,1
DA:106,2
DA:107,2
DA:110,1
DA:111,1
DA:112,1
DA:116,1
DA:117,1
DA:119,1
DA:120,2
DA:121,2
DA:124,1
DA:125,1
DA:126,1
DA:127,1
DA:128,1
DA:130,1
DA:131,1
DA:132,1
DA:133,1
DA:134,1
DA:135,1
DA:137,1
DA:138,2
DA:139,1
DA:141,2
DA:142,2
DA:145,1
DA:146,1
DA:147,1
DA:151,1
DA:152,1
DA:155,1
DA:156,1
DA:158,1
DA:159,1
DA:160,1
DA:161,1
DA:167,1
DA:168,1
LF:108
LH:107
end_of_record
TN:
SF:/home/kgsande/xmlparse/tests/test_xmlParser.cpp
FN:12,_Z20test_basic_structurev
FN:22,_Z22test_attribute_parsingv
FN:31,_Z21test_comment_ignoringv
FN:39,_Z24test_callback_triggeringv
FN:44,_ZZ24test_callback_triggeringvENKUlRKN10Xml_Parser7xmlNodeEE_clES2_
FN:54,_Z25test_mismatched_tag_errorv
FN:62,_Z23test_unclosed_tag_errorv
FN:71,main
FNDA:1,_ZZ24test_callback_triggeringvENKUlRKN10Xml_Parser7xmlNodeEE_clES2_
FNDA:1,main
FNDA:1,_Z25test_mismatched_tag_errorv
FNDA:1,_Z23test_unclosed_tag_errorv
FNDA:1,_Z21test_comment_ignoringv
FNDA:1,_Z22test_attribute_parsingv
FNDA:1,_Z24test_callback_triggeringv
FNDA:1,_Z20test_basic_structurev
FNF:8
FNH:8
DA:12,1
DA:13,2
DA:14,1
DA:15,1
DA:16,1
DA:17,1
DA:18,1
DA:19,1
DA:20,1
DA:22,1
DA:23,2
DA:24,1
DA:25,1
DA:26,1
DA:27,1
DA:28,1
DA:29,1
DA:31,1
DA:32,2
DA:33,1
DA:34,1
DA:35,1
DA:36,1
DA:37,1
DA:39,1
DA:40,2
DA:41,1
DA:42,1
DA:43,2
DA:44,1
DA:45,1
DA:46,1
DA:47,1
DA:49,1
DA:50,1
DA:51,1
DA:52,1
DA:54,1
DA:55,2
DA:56,1
DA:57,1
DA:58,1
DA:59,1
DA:60,1
DA:62,1
DA:63,2
DA:64,1
DA:65,1
DA:66,1
DA:67,1
DA:68,1
DA:71,1
DA:72,1
DA:73,1
DA:74,1
DA:75,1
DA:76,1
DA:77,1
DA:78,1
DA:80,1
DA:81,1
DA:82,1
DA:84,1
LF:63
LH:63
end_of_record
TN:
SF:/home/kgsande/xmlparse/tests/test_xmlUtils.cpp
FN:14,_Z17testNormalizePathv
FN:23,_Z13testMatchPathv
FN:30,_Z18testParseIfIntegerv
FN:41,_Z14testPathEndsInv
FN:47,_Z20testIsWhiteSpaceOnlyv
FN:53,_Z8testTrimv
FN:59,_Z13testBuildPathv
FN:67,_Z13testDecodeEntv
FN:73,main
FNDA:1,_Z13testMatchPathv
FNDA:1,_Z18testParseIfIntegerv
FNDA:1,_Z8testTrimv
FNDA:1,_Z13testBuildPathv
FNDA:1,_Z13testDecodeEntv
FNDA:1,_Z14testPathEndsInv
FNDA:1,_Z20testIsWhiteSpaceOnlyv
FNDA:1,_Z17testNormalizePathv
FNDA:1,main
FNF:9
FNH:9
DA:14,1
DA:16,1
DA:17,1
DA:18,1
DA:19,1
DA:20,1
DA:21,1
DA:23,1
DA:25,1
DA:26,1
DA:27,1
DA:28,1
DA:30,1
DA:32,1
DA:33,1
DA:34,1
DA:35,1
DA:36,1
DA:37,1
DA:39,1
DA:41,1
DA:43,1
DA:44,1
DA:45,1
DA:47,1
DA:49,1
DA:50,1
DA:51,1
DA:53,1
DA:55,1
DA:56,1
DA:57,1
DA:59,1
DA:61,1
DA:62,1
DA:63,1
DA:64,1
DA:65,1
DA:67,1
DA:69,1
DA:70,1
DA:71,1
DA:73,1
DA:75,1
DA:76,1
DA:77,1
DA:78,1
DA:79,1
DA:80,1
DA:81,1
DA:82,1
DA:83,1
DA:85,1
DA:86,1
DA:87,1
DA:89,1
LF:56
LH:56
end_of_record
